; Function Attrs: mustprogress uwtable
define void @_ZN32pxrInternal_v0_24__pxrReserved__10ArchGetCwdB5cxx11Ev(ptr dead_on_unwind noalias writable sret(%"class.std::__cxx11::basic_string") align 8 %0) local_unnamed_addr #0 personality ptr @__gxx_personality_v0 {
  %2 = alloca [4096 x i8], align 16
  %3 = alloca %"class.std::allocator", align 1
  %4 = alloca %"class.std::allocator", align 1
  %5 = alloca %"class.std::allocator", align 1
  %6 = call ptr @getcwd(ptr noundef nonnull %2, i64 noundef 4096) #15
  %.not = icmp eq ptr %6, null
  br i1 %.not, label %15, label %7

7:                                                ; preds = %1
  call void @_ZNSaIcEC1Ev(ptr noundef nonnull align 1 dereferenceable(1) %3) #15
  %8 = invoke noundef ptr @_ZNSt7__cxx1112basic_stringIcSt11char_traitsIcESaIcEE13_M_local_dataEv(ptr noundef nonnull align 8 dereferenceable(32) %0)
          to label %.noexc unwind label %13

.noexc:                                           ; preds = %7
  invoke void @_ZNSt7__cxx1112basic_stringIcSt11char_traitsIcESaIcEE12_Alloc_hiderC1EPcRKS3_(ptr noundef nonnull align 8 dereferenceable(8) %0, ptr noundef %8, ptr noundef nonnull align 1 dereferenceable(1) %3)
          to label %.noexc9 unwind label %13

.noexc9:                                          ; preds = %.noexc
  %9 = call noundef i64 @strlen(ptr noundef nonnull dereferenceable(1) %2) #15
  %10 = getelementptr inbounds i8, ptr %2, i64 %9
  invoke void @_ZNSt7__cxx1112basic_stringIcSt11char_traitsIcESaIcEE12_M_constructIPKcEEvT_S8_St20forward_iterator_tag(ptr noundef nonnull align 8 dereferenceable(32) %0, ptr noundef nonnull %2, ptr noundef nonnull %10)
          to label %_ZNSt7__cxx1112basic_stringIcSt11char_traitsIcESaIcEEC2IS3_EEPKcRKS3_.exit unwind label %11

11:                                               ; preds = %.noexc9
  %12 = landingpad { ptr, i32 }
          cleanup
  call void @_ZNSaIcED2Ev(ptr noundef nonnull align 1 dereferenceable(1) %0) #15
  br label %.body

_ZNSt7__cxx1112basic_stringIcSt11char_traitsIcESaIcEEC2IS3_EEPKcRKS3_.exit: ; preds = %.noexc9
  call void @_ZNSaIcED1Ev(ptr noundef nonnull align 1 dereferenceable(1) %3) #15
  br label %31

13:                                               ; preds = %.noexc, %7
  %14 = landingpad { ptr, i32 }
          cleanup
  br label %.body

15:                                               ; preds = %1
  %16 = call ptr @getcwd(ptr noundef null, i64 noundef 0) #15
  %.not7 = icmp eq ptr %16, null
  br i1 %.not7, label %25, label %17

17:                                               ; preds = %15
  call void @_ZNSaIcEC1Ev(ptr noundef nonnull align 1 dereferenceable(1) %4) #15
  %18 = invoke noundef ptr @_ZNSt7__cxx1112basic_stringIcSt11char_traitsIcESaIcEE13_M_local_dataEv(ptr noundef nonnull align 8 dereferenceable(32) %0)
          to label %.noexc10 unwind label %23

.noexc10:                                         ; preds = %17
  invoke void @_ZNSt7__cxx1112basic_stringIcSt11char_traitsIcESaIcEE12_Alloc_hiderC1EPcRKS3_(ptr noundef nonnull align 8 dereferenceable(8) %0, ptr noundef %18, ptr noundef nonnull align 1 dereferenceable(1) %4)
          to label %.noexc11 unwind label %23

19:                                               ; preds = %.noexc11
  %20 = landingpad { ptr, i32 }
          cleanup
  call void @_ZNSaIcED2Ev(ptr noundef nonnull align 1 dereferenceable(1) %0) #15
  br label %.body

.noexc11:                                         ; preds = %.noexc10
  %21 = call noundef i64 @strlen(ptr noundef nonnull dereferenceable(1) %16) #15
  %22 = getelementptr inbounds i8, ptr %16, i64 %21
  invoke void @_ZNSt7__cxx1112basic_stringIcSt11char_traitsIcESaIcEE12_M_constructIPKcEEvT_S8_St20forward_iterator_tag(ptr noundef nonnull align 8 dereferenceable(32) %0, ptr noundef nonnull %16, ptr noundef nonnull %22)
          to label %_ZNSt7__cxx1112basic_stringIcSt11char_traitsIcESaIcEEC2IS3_EEPKcRKS3_.exit14 unwind label %19

_ZNSt7__cxx1112basic_stringIcSt11char_traitsIcESaIcEEC2IS3_EEPKcRKS3_.exit14: ; preds = %.noexc11
  call void @_ZNSaIcED1Ev(ptr noundef nonnull align 1 dereferenceable(1) %4) #15
  call void @free(ptr noundef nonnull %16) #15
  br label %31

23:                                               ; preds = %.noexc10, %17
  %24 = landingpad { ptr, i32 }
          cleanup
  br label %.body

25:                                               ; preds = %15
  call void @_ZN32pxrInternal_v0_24__pxrReserved__12Arch_WarningEPKcS1_mS1_(ptr noundef nonnull @.str, ptr noundef nonnull @__func__._ZN32pxrInternal_v0_24__pxrReserved__10ArchGetCwdB5cxx11Ev, i64 noundef 61, ptr noundef nonnull @.str.1)
  call void @_ZNSaIcEC1Ev(ptr noundef nonnull align 1 dereferenceable(1) %5) #15
  %26 = invoke noundef ptr @_ZNSt7__cxx1112basic_stringIcSt11char_traitsIcESaIcEE13_M_local_dataEv(ptr noundef nonnull align 8 dereferenceable(32) %0)
          to label %.noexc15 unwind label %29

.noexc15:                                         ; preds = %25
  invoke void @_ZNSt7__cxx1112basic_stringIcSt11char_traitsIcESaIcEE12_Alloc_hiderC1EPcRKS3_(ptr noundef nonnull align 8 dereferenceable(8) %0, ptr noundef %26, ptr noundef nonnull align 1 dereferenceable(1) %5)
          to label %.noexc16 unwind label %29

.noexc16:                                         ; preds = %.noexc15
  invoke void @_ZNSt7__cxx1112basic_stringIcSt11char_traitsIcESaIcEE12_M_constructIPKcEEvT_S8_St20forward_iterator_tag(ptr noundef nonnull align 8 dereferenceable(32) %0, ptr noundef nonnull @.str.2, ptr noundef nonnull getelementptr inbounds (i8, ptr @.str.2, i64 1))
          to label %_ZNSt7__cxx1112basic_stringIcSt11char_traitsIcESaIcEEC2IS3_EEPKcRKS3_.exit19 unwind label %27

27:                                               ; preds = %.noexc16
  %28 = landingpad { ptr, i32 }
          cleanup
  call void @_ZNSaIcED2Ev(ptr noundef nonnull align 1 dereferenceable(1) %0) #15
  br label %.body

_ZNSt7__cxx1112basic_stringIcSt11char_traitsIcESaIcEEC2IS3_EEPKcRKS3_.exit19: ; preds = %.noexc16
  call void @_ZNSaIcED1Ev(ptr noundef nonnull align 1 dereferenceable(1) %5) #15
  br label %31

29:                                               ; preds = %.noexc15, %25
  %30 = landingpad { ptr, i32 }
          cleanup
  br label %.body

31:                                               ; preds = %_ZNSt7__cxx1112basic_stringIcSt11char_traitsIcESaIcEEC2IS3_EEPKcRKS3_.exit14, %_ZNSt7__cxx1112basic_stringIcSt11char_traitsIcESaIcEEC2IS3_EEPKcRKS3_.exit19, %_ZNSt7__cxx1112basic_stringIcSt11char_traitsIcESaIcEEC2IS3_EEPKcRKS3_.exit
  ret void

.body:                                            ; preds = %29, %27, %23, %19, %13, %11
  %.sink = phi ptr [ %3, %11 ], [ %3, %13 ], [ %4, %19 ], [ %4, %23 ], [ %5, %27 ], [ %5, %29 ]
  %.pn = phi { ptr, i32 } [ %12, %11 ], [ %14, %13 ], [ %20, %19 ], [ %24, %23 ], [ %28, %27 ], [ %30, %29 ]
  call void @_ZNSaIcED1Ev(ptr noundef nonnull align 1 dereferenceable(1) %.sink) #15
  resume { ptr, i32 } %.pn
}